; Function Attrs: nofree norecurse nosync nounwind memory(readwrite, inaccessiblemem: write) uwtable
define range(i32 -2, 1) i32 @ma_notch2_process_pcm_frames(ptr noundef captures(address_is_null) %0, ptr noundef captures(address_is_null) %1, ptr noundef captures(address_is_null) %2, i64 noundef %3) local_unnamed_addr #35 {
  %5 = icmp eq ptr %0, null
  br i1 %5, label %8, label %6

6:                                                ; preds = %4
  %7 = tail call i32 @ma_biquad_process_pcm_frames(ptr noundef nonnull %0, ptr noundef %1, ptr noundef %2, i64 noundef %3)
  br label %8

8:                                                ; preds = %4, %6
  %.0 = phi i32 [ %7, %6 ], [ -2, %4 ]
  ret i32 %.0
}